; Function Attrs: nounwind uwtable
define dso_local void @pgstat_archiver_snapshot_cb() local_unnamed_addr #0 {
  %1 = load ptr, ptr @pgStatLocal, align 8
  %2 = getelementptr inbounds nuw i8, ptr %1, i64 32
  %3 = getelementptr inbounds nuw i8, ptr %1, i64 56
  %4 = getelementptr inbounds nuw i8, ptr %1, i64 48
  br label %pgstat_end_changecount_read.exit.i

pgstat_end_changecount_read.exit.i:               ; preds = %pgstat_end_changecount_read.exit.i.backedge, %0
  %5 = load i32, ptr %4, align 4
  %6 = load volatile i32, ptr @InterruptPending, align 4
  %.not.i.i = icmp eq i32 %6, 0
  br i1 %.not.i.i, label %pgstat_begin_changecount_read.exit.i, label %7, !prof !6

7:                                                ; preds = %pgstat_end_changecount_read.exit.i
  tail call void @ProcessInterrupts() #3
  br label %pgstat_begin_changecount_read.exit.i

pgstat_begin_changecount_read.exit.i:             ; preds = %7, %pgstat_end_changecount_read.exit.i
  tail call void asm sideeffect "", "~{memory},~{dirflag},~{fpsr},~{flags}"() #3, !srcloc !7
  tail call void @llvm.memcpy.p0.p0.i64(ptr noundef nonnull align 8 dereferenceable(136) getelementptr inbounds nuw (i8, ptr @pgStatLocal, i64 56), ptr noundef nonnull readonly align 1 dereferenceable(136) %3, i64 136, i1 false)
  tail call void asm sideeffect "", "~{memory},~{dirflag},~{fpsr},~{flags}"() #3, !srcloc !8
  %8 = and i32 %5, 1
  %.not.i5.i = icmp eq i32 %8, 0
  br i1 %.not.i5.i, label %9, label %pgstat_end_changecount_read.exit.i.backedge

9:                                                ; preds = %pgstat_begin_changecount_read.exit.i
  %10 = load i32, ptr %4, align 4
  %11 = icmp eq i32 %5, %10
  br i1 %11, label %pgstat_copy_changecounted_stats.exit, label %pgstat_end_changecount_read.exit.i.backedge

pgstat_end_changecount_read.exit.i.backedge:      ; preds = %9, %pgstat_begin_changecount_read.exit.i
  br label %pgstat_end_changecount_read.exit.i, !llvm.loop !9

pgstat_copy_changecounted_stats.exit:             ; preds = %9
  %12 = getelementptr inbounds nuw i8, ptr %1, i64 192
  %13 = tail call zeroext i1 @LWLockAcquire(ptr noundef nonnull %2, i32 noundef 1) #3
  %.sroa.0.0.copyload = load i64, ptr %12, align 8
  %.sroa.52.0..sroa_idx = getelementptr inbounds nuw i8, ptr %1, i64 256
  %.sroa.52.0.copyload = load i64, ptr %.sroa.52.0..sroa_idx, align 8
  tail call void @LWLockRelease(ptr noundef nonnull %2) #3
  %14 = load i64, ptr getelementptr inbounds nuw (i8, ptr @pgStatLocal, i64 56), align 8
  %15 = icmp eq i64 %14, %.sroa.0.0.copyload
  br i1 %15, label %16, label %17

16:                                               ; preds = %pgstat_copy_changecounted_stats.exit
  store i8 0, ptr getelementptr inbounds nuw (i8, ptr @pgStatLocal, i64 64), align 8
  store i64 0, ptr getelementptr inbounds nuw (i8, ptr @pgStatLocal, i64 112), align 8
  br label %17

17:                                               ; preds = %16, %pgstat_copy_changecounted_stats.exit
  %18 = sub i64 %14, %.sroa.0.0.copyload
  store i64 %18, ptr getelementptr inbounds nuw (i8, ptr @pgStatLocal, i64 56), align 8
  %19 = load i64, ptr getelementptr inbounds nuw (i8, ptr @pgStatLocal, i64 120), align 8
  %20 = icmp eq i64 %19, %.sroa.52.0.copyload
  br i1 %20, label %21, label %22

21:                                               ; preds = %17
  store i8 0, ptr getelementptr inbounds nuw (i8, ptr @pgStatLocal, i64 128), align 8
  store i64 0, ptr getelementptr inbounds nuw (i8, ptr @pgStatLocal, i64 176), align 8
  br label %22

22:                                               ; preds = %21, %17
  %23 = sub i64 %19, %.sroa.52.0.copyload
  store i64 %23, ptr getelementptr inbounds nuw (i8, ptr @pgStatLocal, i64 120), align 8
  ret void
}